Certificate:
    Data:
        Version: 3 (0x2)
        Serial Number: 1 (0x1)
    Signature Algorithm: sha256WithRSAEncryption
        Issuer: CN=ca.localdomain, C=FR, ST=BdR, L=Aix, O=fD, OU=Tests
        Validity
            Not Before: May 15 12:33:47 2019 GMT
            Not After : May 14 12:33:47 2020 GMT
        Subject: C=FR, ST=BdR, O=fD, OU=Tests, CN=sgwc-dev.test3gpp.net
        Subject Public Key Info:
            Public Key Algorithm: rsaEncryption
                Public-Key: (1024 bit)
                Modulus:
                    00:ce:32:27:c4:f9:50:18:08:fa:bf:a4:6e:5d:41:
                    c8:03:15:6f:74:30:5e:ba:bc:0e:22:37:bc:d5:7f:
                    0d:da:c5:1e:32:f7:69:0d:b0:3e:15:0f:60:2f:86:
                    8d:7d:1d:d8:da:4d:c8:32:46:15:07:b5:aa:b8:41:
                    b8:59:3e:52:18:a5:11:35:55:9b:48:9c:21:20:74:
                    be:12:d5:34:37:b4:d0:ec:4c:48:66:c3:6a:55:ec:
                    a4:09:88:21:a4:41:45:2a:00:4a:47:3a:1f:10:61:
                    e9:0b:33:39:1c:63:b2:8c:96:b2:fc:64:41:e2:da:
                    d8:36:ed:30:76:f9:70:9a:09
                Exponent: 65537 (0x10001)
        X509v3 extensions:
            X509v3 Basic Constraints: 
                CA:FALSE
            Netscape Comment: 
                OpenSSL Generated Certificate
            X509v3 Subject Key Identifier: 
                4C:EC:1B:74:1F:73:23:D6:85:98:E2:FF:B8:70:BC:9C:55:9E:14:06
            X509v3 Authority Key Identifier: 
                keyid:CF:51:54:F7:22:48:BC:A8:CA:7C:7F:F0:4F:93:B2:15:B6:74:AB:22

    Signature Algorithm: sha256WithRSAEncryption
         53:5f:94:80:c9:6a:18:b2:58:b1:f0:32:63:ef:6b:b4:86:e5:
         1b:ea:1e:41:38:15:8a:90:57:a9:2c:4e:23:c8:eb:26:0a:07:
         ef:b0:7d:a8:71:bf:5b:18:67:65:85:99:23:72:ce:6b:b2:dd:
         78:aa:fe:51:9b:6a:fa:42:cf:86:50:bf:31:6d:05:ff:c0:dd:
         8f:17:fa:b6:92:9e:f1:5e:d0:3a:6c:b1:b9:6b:7d:39:05:0a:
         29:3c:96:54:b6:72:d2:3c:98:b9:81:03:9f:fa:70:dc:b1:02:
         7e:dd:fb:70:fc:26:67:c2:a0:53:46:16:13:ee:d6:56:c3:dd:
         a4:8c
-----BEGIN CERTIFICATE-----
MIICqDCCAhGgAwIBAgIBATANBgkqhkiG9w0BAQsFADBfMRcwFQYDVQQDDA5jYS5s
b2NhbGRvbWFpbjELMAkGA1UEBhMCRlIxDDAKBgNVBAgMA0JkUjEMMAoGA1UEBwwD
QWl4MQswCQYDVQQKDAJmRDEOMAwGA1UECwwFVGVzdHMwHhcNMTkwNTE1MTIzMzQ3
WhcNMjAwNTE0MTIzMzQ3WjBYMQswCQYDVQQGEwJGUjEMMAoGA1UECAwDQmRSMQsw
CQYDVQQKDAJmRDEOMAwGA1UECwwFVGVzdHMxHjAcBgNVBAMMFXNnd2MtZGV2LnRl
c3QzZ3BwLm5ldDCBnzANBgkqhkiG9w0BAQEFAAOBjQAwgYkCgYEAzjInxPlQGAj6
v6RuXUHIAxVvdDBeurwOIje81X8N2sUeMvdpDbA+FQ9gL4aNfR3Y2k3IMkYVB7Wq
uEG4WT5SGKURNVWbSJwhIHS+EtU0N7TQ7ExIZsNqVeykCYghpEFFKgBKRzofEGHp
CzM5HGOyjJay/GRB4trYNu0wdvlwmgkCAwEAAaN7MHkwCQYDVR0TBAIwADAsBglg
hkgBhvhCAQ0EHxYdT3BlblNTTCBHZW5lcmF0ZWQgQ2VydGlmaWNhdGUwHQYDVR0O
BBYEFEzsG3QfcyPWhZji/7hwvJxVnhQGMB8GA1UdIwQYMBaAFM9RVPciSLyoynx/
8E+TshW2dKsiMA0GCSqGSIb3DQEBCwUAA4GBAFNflIDJahiyWLHwMmPva7SG5Rvq
HkE4FYqQV6ksTiPI6yYKB++wfahxv1sYZ2WFmSNyzmuy3Xiq/lGbavpCz4ZQvzFt
Bf/A3Y8X+raSnvFe0DpssblrfTkFCik8llS2ctI8mLmBA5/6cNyxAn7d+3D8JmfC
oFNGFhPu1lbD3aSM
-----END CERTIFICATE-----
